target datalayout = "e-m:e-p270:32:32-p271:32:32-p272:64:64-i64:64-i128:128-f80:128-n8:16:32:64-S128"
target triple = "x86_64-pc-linux-gnu"

%struct._typeobject = type { %struct.PyVarObject, ptr, i64, i64, ptr, i64, ptr, ptr, ptr, ptr, ptr, ptr, ptr, ptr, ptr, ptr, ptr, ptr, ptr, i64, ptr, ptr, ptr, ptr, i64, ptr, ptr, ptr, ptr, ptr, ptr, ptr, ptr, ptr, i64, ptr, ptr, ptr, ptr, ptr, ptr, ptr, ptr, ptr, ptr, ptr, i32, ptr, ptr, i8, i16 }
%struct.PyVarObject = type { %struct._object, i64 }
%struct._object = type { %union.anon, ptr }
%union.anon = type { i64 }
%struct.anon = type { i32, i32 }
%struct.PyDictObject = type { %struct._object, i64, i64, ptr, ptr }
%struct.PyTupleObject = type { %struct.PyVarObject, [1 x ptr] }

@PyExc_TypeError = external global ptr, align 8
@.str.10 = private unnamed_addr constant [25 x i8] c"keywords must be strings\00", align 1

; Function Attrs: alwaysinline nounwind uwtable
define internal i32 @_Py_IsImmortal(ptr noundef %0) #3 {
  %2 = alloca ptr, align 8
  store ptr %0, ptr %2, align 8, !tbaa !9
  %3 = load ptr, ptr %2, align 8, !tbaa !9
  %4 = getelementptr inbounds nuw %struct._object, ptr %3, i32 0, i32 0
  %5 = getelementptr inbounds nuw %struct.anon, ptr %4, i32 0, i32 0
  %6 = load i32, ptr %5, align 8, !tbaa !24
  %7 = icmp slt i32 %6, 0
  %8 = zext i1 %7 to i32
  ret i32 %8
}

; Function Attrs: inlinehint nounwind uwtable
define internal i64 @Py_SIZE(ptr noundef %0) #1 {
  %2 = alloca ptr, align 8
  store ptr %0, ptr %2, align 8, !tbaa !9
  %3 = load ptr, ptr %2, align 8, !tbaa !9
  %4 = getelementptr inbounds nuw %struct.PyVarObject, ptr %3, i32 0, i32 1
  %5 = load i64, ptr %4, align 8, !tbaa !63
  ret i64 %5
}

; Function Attrs: nounwind uwtable
define hidden void @_PyStack_UnpackDict_FreeNoDecRef(ptr noundef %0, ptr noundef %1) #0 {
  %3 = alloca ptr, align 8
  %4 = alloca ptr, align 8
  store ptr %0, ptr %3, align 8, !tbaa !36
  store ptr %1, ptr %4, align 8, !tbaa !9
  %5 = load ptr, ptr %3, align 8, !tbaa !36
  %6 = getelementptr ptr, ptr %5, i64 -1
  call void @PyMem_Free(ptr noundef %6)
  %7 = load ptr, ptr %4, align 8, !tbaa !9
  call void @Py_DECREF(ptr noundef %7)
  ret void
}

; Function Attrs: alwaysinline nounwind uwtable
define internal void @Py_DECREF(ptr noundef %0) #3 {
  %2 = alloca ptr, align 8
  store ptr %0, ptr %2, align 8, !tbaa !9
  %3 = load ptr, ptr %2, align 8, !tbaa !9
  %4 = call i32 @_Py_IsImmortal(ptr noundef %3)
  %5 = icmp ne i32 %4, 0
  br i1 %5, label %6, label %7

6:                                                ; preds = %1
  br label %16

7:                                                ; preds = %1
  %8 = load ptr, ptr %2, align 8, !tbaa !9
  %9 = getelementptr inbounds nuw %struct._object, ptr %8, i32 0, i32 0
  %10 = getelementptr inbounds nuw %struct.anon, ptr %9, i32 0, i32 0
  %11 = load i32, ptr %10, align 8, !tbaa !24
  %12 = add i32 %11, -1
  store i32 %12, ptr %10, align 8, !tbaa !24
  %13 = icmp eq i32 %12, 0
  br i1 %13, label %14, label %16

14:                                               ; preds = %7
  %15 = load ptr, ptr %2, align 8, !tbaa !9
  call void @_Py_Dealloc(ptr noundef %15)
  br label %16

16:                                               ; preds = %6, %14, %7
  ret void
}

; Function Attrs: inlinehint nounwind uwtable
define internal i64 @PyTuple_GET_SIZE(ptr noundef %0) #1 {
  %2 = alloca ptr, align 8
  %3 = alloca ptr, align 8
  store ptr %0, ptr %2, align 8, !tbaa !9
  call void @llvm.lifetime.start.p0(i64 8, ptr %3) #9
  %4 = load ptr, ptr %2, align 8, !tbaa !9
  store ptr %4, ptr %3, align 8, !tbaa !38
  %5 = load ptr, ptr %3, align 8, !tbaa !38
  %6 = call i64 @Py_SIZE(ptr noundef %5)
  call void @llvm.lifetime.end.p0(i64 8, ptr %3) #9
  ret i64 %6
}

; Function Attrs: alwaysinline nounwind uwtable
define internal void @Py_INCREF(ptr noundef %0) #3 {
  %2 = alloca ptr, align 8
  %3 = alloca i32, align 4
  %4 = alloca i32, align 4
  store ptr %0, ptr %2, align 8, !tbaa !9
  call void @llvm.lifetime.start.p0(i64 4, ptr %3) #9
  %5 = load ptr, ptr %2, align 8, !tbaa !9
  %6 = getelementptr inbounds nuw %struct._object, ptr %5, i32 0, i32 0
  %7 = getelementptr inbounds nuw %struct.anon, ptr %6, i32 0, i32 0
  %8 = load i32, ptr %7, align 8, !tbaa !24
  store i32 %8, ptr %3, align 4, !tbaa !25
  %9 = load i32, ptr %3, align 4, !tbaa !25
  %10 = icmp slt i32 %9, 0
  br i1 %10, label %11, label %12

11:                                               ; preds = %1
  store i32 1, ptr %4, align 4
  br label %18

12:                                               ; preds = %1
  %13 = load i32, ptr %3, align 4, !tbaa !25
  %14 = add i32 %13, 1
  %15 = load ptr, ptr %2, align 8, !tbaa !9
  %16 = getelementptr inbounds nuw %struct._object, ptr %15, i32 0, i32 0
  %17 = getelementptr inbounds nuw %struct.anon, ptr %16, i32 0, i32 0
  store i32 %14, ptr %17, align 8, !tbaa !24
  store i32 0, ptr %4, align 4
  br label %18

18:                                               ; preds = %12, %11
  call void @llvm.lifetime.end.p0(i64 4, ptr %3) #9
  %19 = load i32, ptr %4, align 4
  switch i32 %19, label %21 [
    i32 0, label %20
    i32 1, label %20
  ]

20:                                               ; preds = %18, %18
  ret void

21:                                               ; preds = %18
  unreachable
}

; Function Attrs: nounwind uwtable
define hidden void @_PyStack_UnpackDict_Free(ptr noundef %0, i64 noundef %1, ptr noundef %2) #0 {
  %4 = alloca ptr, align 8
  %5 = alloca i64, align 8
  %6 = alloca ptr, align 8
  %7 = alloca i64, align 8
  %8 = alloca i64, align 8
  store ptr %0, ptr %4, align 8, !tbaa !36
  store i64 %1, ptr %5, align 8, !tbaa !37
  store ptr %2, ptr %6, align 8, !tbaa !9
  call void @llvm.lifetime.start.p0(i64 8, ptr %7) #9
  %9 = load ptr, ptr %6, align 8, !tbaa !9
  %10 = call i64 @PyTuple_GET_SIZE(ptr noundef %9)
  %11 = load i64, ptr %5, align 8, !tbaa !37
  %12 = add i64 %10, %11
  store i64 %12, ptr %7, align 8, !tbaa !37
  call void @llvm.lifetime.start.p0(i64 8, ptr %8) #9
  store i64 0, ptr %8, align 8, !tbaa !37
  br label %13

13:                                               ; preds = %23, %3
  %14 = load i64, ptr %8, align 8, !tbaa !37
  %15 = load i64, ptr %7, align 8, !tbaa !37
  %16 = icmp slt i64 %14, %15
  br i1 %16, label %18, label %17

17:                                               ; preds = %13
  call void @llvm.lifetime.end.p0(i64 8, ptr %8) #9
  br label %26

18:                                               ; preds = %13
  %19 = load ptr, ptr %4, align 8, !tbaa !36
  %20 = load i64, ptr %8, align 8, !tbaa !37
  %21 = getelementptr ptr, ptr %19, i64 %20
  %22 = load ptr, ptr %21, align 8, !tbaa !9
  call void @Py_DECREF(ptr noundef %22)
  br label %23

23:                                               ; preds = %18
  %24 = load i64, ptr %8, align 8, !tbaa !37
  %25 = add i64 %24, 1
  store i64 %25, ptr %8, align 8, !tbaa !37
  br label %13, !llvm.loop !48

26:                                               ; preds = %17
  %27 = load ptr, ptr %4, align 8, !tbaa !36
  %28 = load ptr, ptr %6, align 8, !tbaa !9
  call void @_PyStack_UnpackDict_FreeNoDecRef(ptr noundef %27, ptr noundef %28)
  call void @llvm.lifetime.end.p0(i64 8, ptr %7) #9
  ret void
}

; Function Attrs: inlinehint nounwind uwtable
define internal void @PyTuple_SET_ITEM(ptr noundef %0, i64 noundef %1, ptr noundef %2) #1 {
  %4 = alloca ptr, align 8
  %5 = alloca i64, align 8
  %6 = alloca ptr, align 8
  %7 = alloca ptr, align 8
  store ptr %0, ptr %4, align 8, !tbaa !9
  store i64 %1, ptr %5, align 8, !tbaa !37
  store ptr %2, ptr %6, align 8, !tbaa !9
  call void @llvm.lifetime.start.p0(i64 8, ptr %7) #9
  %8 = load ptr, ptr %4, align 8, !tbaa !9
  store ptr %8, ptr %7, align 8, !tbaa !38
  %9 = load ptr, ptr %6, align 8, !tbaa !9
  %10 = load ptr, ptr %7, align 8, !tbaa !38
  %11 = getelementptr inbounds nuw %struct.PyTupleObject, ptr %10, i32 0, i32 1
  %12 = load i64, ptr %5, align 8, !tbaa !37
  %13 = getelementptr [1 x ptr], ptr %11, i64 0, i64 %12
  store ptr %9, ptr %13, align 8, !tbaa !9
  call void @llvm.lifetime.end.p0(i64 8, ptr %7) #9
  ret void
}

; Function Attrs: inlinehint nounwind uwtable
define internal ptr @_Py_TYPE(ptr noundef %0) #1 {
  %2 = alloca ptr, align 8
  store ptr %0, ptr %2, align 8, !tbaa !9
  %3 = load ptr, ptr %2, align 8, !tbaa !9
  %4 = getelementptr inbounds nuw %struct._object, ptr %3, i32 0, i32 1
  %5 = load ptr, ptr %4, align 8, !tbaa !35
  ret ptr %5
}

; Function Attrs: inlinehint nounwind uwtable
define internal ptr @_Py_NewRef(ptr noundef %0) #1 {
  %2 = alloca ptr, align 8
  store ptr %0, ptr %2, align 8, !tbaa !9
  %3 = load ptr, ptr %2, align 8, !tbaa !9
  call void @Py_INCREF(ptr noundef %3)
  %4 = load ptr, ptr %2, align 8, !tbaa !9
  ret ptr %4
}

; Function Attrs: inlinehint nounwind uwtable
define internal i64 @PyDict_GET_SIZE(ptr noundef %0) #1 {
  %2 = alloca ptr, align 8
  %3 = alloca ptr, align 8
  store ptr %0, ptr %2, align 8, !tbaa !9
  call void @llvm.lifetime.start.p0(i64 8, ptr %3) #9
  %4 = load ptr, ptr %2, align 8, !tbaa !9
  store ptr %4, ptr %3, align 8, !tbaa !38
  %5 = load ptr, ptr %3, align 8, !tbaa !38
  %6 = getelementptr inbounds nuw %struct.PyDictObject, ptr %5, i32 0, i32 1
  %7 = load i64, ptr %6, align 8, !tbaa !40
  call void @llvm.lifetime.end.p0(i64 8, ptr %3) #9
  ret i64 %7
}

; Function Attrs: nounwind uwtable
define hidden ptr @_PyStack_UnpackDict(ptr noundef %0, ptr noundef %1, i64 noundef %2, ptr noundef %3, ptr noundef %4) #0 {
  %6 = alloca ptr, align 8
  %7 = alloca ptr, align 8
  %8 = alloca ptr, align 8
  %9 = alloca i64, align 8
  %10 = alloca ptr, align 8
  %11 = alloca ptr, align 8
  %12 = alloca i64, align 8
  %13 = alloca i64, align 8
  %14 = alloca i32, align 4
  %15 = alloca ptr, align 8
  %16 = alloca ptr, align 8
  %17 = alloca i64, align 8
  %18 = alloca ptr, align 8
  %19 = alloca i64, align 8
  %20 = alloca i64, align 8
  %21 = alloca ptr, align 8
  %22 = alloca ptr, align 8
  %23 = alloca i64, align 8
  store ptr %0, ptr %7, align 8, !tbaa !4
  store ptr %1, ptr %8, align 8, !tbaa !36
  store i64 %2, ptr %9, align 8, !tbaa !37
  store ptr %3, ptr %10, align 8, !tbaa !9
  store ptr %4, ptr %11, align 8, !tbaa !36
  call void @llvm.lifetime.start.p0(i64 8, ptr %12) #9
  %24 = load ptr, ptr %10, align 8, !tbaa !9
  %25 = call i64 @PyDict_GET_SIZE(ptr noundef %24)
  store i64 %25, ptr %12, align 8, !tbaa !37
  call void @llvm.lifetime.start.p0(i64 8, ptr %13) #9
  store i64 1152921504606846974, ptr %13, align 8, !tbaa !37
  %26 = load i64, ptr %9, align 8, !tbaa !37
  %27 = load i64, ptr %13, align 8, !tbaa !37
  %28 = load i64, ptr %12, align 8, !tbaa !37
  %29 = sub i64 %27, %28
  %30 = icmp sgt i64 %26, %29
  br i1 %30, label %31, label %34

31:                                               ; preds = %5
  %32 = load ptr, ptr %7, align 8, !tbaa !4
  %33 = call ptr @_PyErr_NoMemory(ptr noundef %32)
  store ptr null, ptr %6, align 8
  store i32 1, ptr %14, align 4
  br label %115

34:                                               ; preds = %5
  call void @llvm.lifetime.start.p0(i64 8, ptr %15) #9
  %35 = load i64, ptr %9, align 8, !tbaa !37
  %36 = add i64 1, %35
  %37 = load i64, ptr %12, align 8, !tbaa !37
  %38 = add i64 %36, %37
  %39 = mul i64 %38, 8
  %40 = call ptr @PyMem_Malloc(i64 noundef %39)
  store ptr %40, ptr %15, align 8, !tbaa !36
  %41 = load ptr, ptr %15, align 8, !tbaa !36
  %42 = icmp eq ptr %41, null
  br i1 %42, label %43, label %46

43:                                               ; preds = %34
  %44 = load ptr, ptr %7, align 8, !tbaa !4
  %45 = call ptr @_PyErr_NoMemory(ptr noundef %44)
  store ptr null, ptr %6, align 8
  store i32 1, ptr %14, align 4
  br label %114

46:                                               ; preds = %34
  call void @llvm.lifetime.start.p0(i64 8, ptr %16) #9
  %47 = load i64, ptr %12, align 8, !tbaa !37
  %48 = call ptr @PyTuple_New(i64 noundef %47)
  store ptr %48, ptr %16, align 8, !tbaa !9
  %49 = load ptr, ptr %16, align 8, !tbaa !9
  %50 = icmp eq ptr %49, null
  br i1 %50, label %51, label %53

51:                                               ; preds = %46
  %52 = load ptr, ptr %15, align 8, !tbaa !36
  call void @PyMem_Free(ptr noundef %52)
  store ptr null, ptr %6, align 8
  store i32 1, ptr %14, align 4
  br label %113

53:                                               ; preds = %46
  %54 = load ptr, ptr %15, align 8, !tbaa !36
  %55 = getelementptr ptr, ptr %54, i32 1
  store ptr %55, ptr %15, align 8, !tbaa !36
  call void @llvm.lifetime.start.p0(i64 8, ptr %17) #9
  store i64 0, ptr %17, align 8, !tbaa !37
  br label %56

56:                                               ; preds = %70, %53
  %57 = load i64, ptr %17, align 8, !tbaa !37
  %58 = load i64, ptr %9, align 8, !tbaa !37
  %59 = icmp slt i64 %57, %58
  br i1 %59, label %61, label %60

60:                                               ; preds = %56
  store i32 2, ptr %14, align 4
  call void @llvm.lifetime.end.p0(i64 8, ptr %17) #9
  br label %73

61:                                               ; preds = %56
  %62 = load ptr, ptr %8, align 8, !tbaa !36
  %63 = load i64, ptr %17, align 8, !tbaa !37
  %64 = getelementptr ptr, ptr %62, i64 %63
  %65 = load ptr, ptr %64, align 8, !tbaa !9
  %66 = call ptr @_Py_NewRef(ptr noundef %65)
  %67 = load ptr, ptr %15, align 8, !tbaa !36
  %68 = load i64, ptr %17, align 8, !tbaa !37
  %69 = getelementptr ptr, ptr %67, i64 %68
  store ptr %66, ptr %69, align 8, !tbaa !9
  br label %70

70:                                               ; preds = %61
  %71 = load i64, ptr %17, align 8, !tbaa !37
  %72 = add i64 %71, 1
  store i64 %72, ptr %17, align 8, !tbaa !37
  br label %56, !llvm.loop !44

73:                                               ; preds = %60
  call void @llvm.lifetime.start.p0(i64 8, ptr %18) #9
  %74 = load ptr, ptr %15, align 8, !tbaa !36
  %75 = load i64, ptr %9, align 8, !tbaa !37
  %76 = getelementptr ptr, ptr %74, i64 %75
  store ptr %76, ptr %18, align 8, !tbaa !36
  call void @llvm.lifetime.start.p0(i64 8, ptr %19) #9
  store i64 0, ptr %19, align 8, !tbaa !37
  call void @llvm.lifetime.start.p0(i64 8, ptr %20) #9
  store i64 0, ptr %20, align 8, !tbaa !37
  call void @llvm.lifetime.start.p0(i64 8, ptr %21) #9
  call void @llvm.lifetime.start.p0(i64 8, ptr %22) #9
  call void @llvm.lifetime.start.p0(i64 8, ptr %23) #9
  store i64 268435456, ptr %23, align 8, !tbaa !37
  br label %77

77:                                               ; preds = %81, %73
  %78 = load ptr, ptr %10, align 8, !tbaa !9
  %79 = call i32 @PyDict_Next(ptr noundef %78, ptr noundef %19, ptr noundef %21, ptr noundef %22)
  %80 = icmp ne i32 %79, 0
  br i1 %80, label %81, label %99

81:                                               ; preds = %77
  %82 = load ptr, ptr %21, align 8, !tbaa !9
  %83 = call ptr @_Py_TYPE(ptr noundef %82)
  %84 = getelementptr inbounds nuw %struct._typeobject, ptr %83, i32 0, i32 19
  %85 = load i64, ptr %84, align 8, !tbaa !46
  %86 = load i64, ptr %23, align 8, !tbaa !37
  %87 = and i64 %86, %85
  store i64 %87, ptr %23, align 8, !tbaa !37
  %88 = load ptr, ptr %16, align 8, !tbaa !9
  %89 = load i64, ptr %20, align 8, !tbaa !37
  %90 = load ptr, ptr %21, align 8, !tbaa !9
  %91 = call ptr @_Py_NewRef(ptr noundef %90)
  call void @PyTuple_SET_ITEM(ptr noundef %88, i64 noundef %89, ptr noundef %91)
  %92 = load ptr, ptr %22, align 8, !tbaa !9
  %93 = call ptr @_Py_NewRef(ptr noundef %92)
  %94 = load ptr, ptr %18, align 8, !tbaa !36
  %95 = load i64, ptr %20, align 8, !tbaa !37
  %96 = getelementptr ptr, ptr %94, i64 %95
  store ptr %93, ptr %96, align 8, !tbaa !9
  %97 = load i64, ptr %20, align 8, !tbaa !37
  %98 = add i64 %97, 1
  store i64 %98, ptr %20, align 8, !tbaa !37
  br label %77, !llvm.loop !47

99:                                               ; preds = %77
  %100 = load i64, ptr %23, align 8, !tbaa !37
  %101 = icmp ne i64 %100, 0
  br i1 %101, label %108, label %102

102:                                              ; preds = %99
  %103 = load ptr, ptr %7, align 8, !tbaa !4
  %104 = load ptr, ptr @PyExc_TypeError, align 8, !tbaa !9
  call void @_PyErr_SetString(ptr noundef %103, ptr noundef %104, ptr noundef @.str.10)
  %105 = load ptr, ptr %15, align 8, !tbaa !36
  %106 = load i64, ptr %9, align 8, !tbaa !37
  %107 = load ptr, ptr %16, align 8, !tbaa !9
  call void @_PyStack_UnpackDict_Free(ptr noundef %105, i64 noundef %106, ptr noundef %107)
  store ptr null, ptr %6, align 8
  store i32 1, ptr %14, align 4
  br label %112

108:                                              ; preds = %99
  %109 = load ptr, ptr %16, align 8, !tbaa !9
  %110 = load ptr, ptr %11, align 8, !tbaa !36
  store ptr %109, ptr %110, align 8, !tbaa !9
  %111 = load ptr, ptr %15, align 8, !tbaa !36
  store ptr %111, ptr %6, align 8
  store i32 1, ptr %14, align 4
  br label %112

112:                                              ; preds = %108, %102
  call void @llvm.lifetime.end.p0(i64 8, ptr %23) #9
  call void @llvm.lifetime.end.p0(i64 8, ptr %22) #9
  call void @llvm.lifetime.end.p0(i64 8, ptr %21) #9
  call void @llvm.lifetime.end.p0(i64 8, ptr %20) #9
  call void @llvm.lifetime.end.p0(i64 8, ptr %19) #9
  call void @llvm.lifetime.end.p0(i64 8, ptr %18) #9
  br label %113

113:                                              ; preds = %112, %51
  call void @llvm.lifetime.end.p0(i64 8, ptr %16) #9
  br label %114

114:                                              ; preds = %113, %43
  call void @llvm.lifetime.end.p0(i64 8, ptr %15) #9
  br label %115

115:                                              ; preds = %114, %31
  call void @llvm.lifetime.end.p0(i64 8, ptr %13) #9
  call void @llvm.lifetime.end.p0(i64 8, ptr %12) #9
  %116 = load ptr, ptr %6, align 8
  ret ptr %116
}