; Function Attrs: nounwind uwtable
define hidden ptr @_PyStack_UnpackDict(ptr noundef %0, ptr noundef readonly captures(none) %1, i64 noundef %2, ptr noundef %3, ptr noundef writeonly captures(none) %4) local_unnamed_addr #0 {
  %6 = alloca i64, align 8
  %7 = alloca ptr, align 8
  %8 = alloca ptr, align 8
  %9 = getelementptr i8, ptr %3, i64 16
  %.val44 = load i64, ptr %9, align 8, !tbaa !36
  %10 = sub i64 1152921504606846974, %.val44
  %11 = icmp sgt i64 %2, %10
  br i1 %11, label %12, label %14

12:                                               ; preds = %5
  %13 = tail call ptr @_PyErr_NoMemory(ptr noundef %0) #10
  br label %78

14:                                               ; preds = %5
  %15 = add i64 %2, 1
  %16 = add i64 %15, %.val44
  %17 = shl i64 %16, 3
  %18 = tail call ptr @PyMem_Malloc(i64 noundef %17) #10
  %19 = icmp eq ptr %18, null
  br i1 %19, label %20, label %22

20:                                               ; preds = %14
  %21 = tail call ptr @_PyErr_NoMemory(ptr noundef %0) #10
  br label %78

22:                                               ; preds = %14
  %23 = tail call ptr @PyTuple_New(i64 noundef %.val44) #10
  %24 = icmp eq ptr %23, null
  br i1 %24, label %25, label %26

25:                                               ; preds = %22
  tail call void @PyMem_Free(ptr noundef nonnull %18) #10
  br label %78

26:                                               ; preds = %22
  %27 = getelementptr i8, ptr %18, i64 8
  %28 = icmp sgt i64 %2, 0
  br i1 %28, label %.lr.ph, label %._crit_edge

._crit_edge:                                      ; preds = %_Py_NewRef.exit, %26
  %29 = getelementptr ptr, ptr %27, i64 %2
  call void @llvm.lifetime.start.p0(i64 8, ptr nonnull %6) #10
  store i64 0, ptr %6, align 8, !tbaa !45
  call void @llvm.lifetime.start.p0(i64 8, ptr nonnull %7) #10
  call void @llvm.lifetime.start.p0(i64 8, ptr nonnull %8) #10
  %30 = call i32 @PyDict_Next(ptr noundef %3, ptr noundef nonnull %6, ptr noundef nonnull %7, ptr noundef nonnull %8) #10
  %.not48 = icmp eq i32 %30, 0
  br i1 %.not48, label %._crit_edge53.thread, label %.lr.ph52

.lr.ph52:                                         ; preds = %._crit_edge
  %31 = getelementptr inbounds nuw i8, ptr %23, i64 24
  br label %40

.lr.ph:                                           ; preds = %26, %_Py_NewRef.exit
  %.03947 = phi i64 [ %39, %_Py_NewRef.exit ], [ 0, %26 ]
  %32 = getelementptr ptr, ptr %1, i64 %.03947
  %33 = load ptr, ptr %32, align 8, !tbaa !23
  %34 = load i32, ptr %33, align 8, !tbaa !24
  %35 = icmp slt i32 %34, 0
  br i1 %35, label %_Py_NewRef.exit, label %36

36:                                               ; preds = %.lr.ph
  %37 = add nuw i32 %34, 1
  store i32 %37, ptr %33, align 8, !tbaa !24
  br label %_Py_NewRef.exit

_Py_NewRef.exit:                                  ; preds = %.lr.ph, %36
  %38 = getelementptr ptr, ptr %27, i64 %.03947
  store ptr %33, ptr %38, align 8, !tbaa !23
  %39 = add nuw nsw i64 %.03947, 1
  %exitcond.not = icmp eq i64 %39, %2
  br i1 %exitcond.not, label %._crit_edge, label %.lr.ph, !llvm.loop !46

40:                                               ; preds = %.lr.ph52, %_Py_NewRef.exit46
  %.050 = phi i64 [ 268435456, %.lr.ph52 ], [ %45, %_Py_NewRef.exit46 ]
  %.03749 = phi i64 [ 0, %.lr.ph52 ], [ %57, %_Py_NewRef.exit46 ]
  %41 = load ptr, ptr %7, align 8, !tbaa !23
  %42 = getelementptr i8, ptr %41, i64 8
  %.val = load ptr, ptr %42, align 8, !tbaa !20
  %43 = getelementptr inbounds nuw i8, ptr %.val, i64 168
  %44 = load i64, ptr %43, align 8, !tbaa !34
  %45 = and i64 %44, %.050
  %46 = load i32, ptr %41, align 8, !tbaa !24
  %47 = icmp slt i32 %46, 0
  br i1 %47, label %_Py_NewRef.exit45, label %48

48:                                               ; preds = %40
  %49 = add nuw i32 %46, 1
  store i32 %49, ptr %41, align 8, !tbaa !24
  br label %_Py_NewRef.exit45

_Py_NewRef.exit45:                                ; preds = %40, %48
  %50 = getelementptr [1 x ptr], ptr %31, i64 0, i64 %.03749
  store ptr %41, ptr %50, align 8, !tbaa !23
  %51 = load ptr, ptr %8, align 8, !tbaa !23
  %52 = load i32, ptr %51, align 8, !tbaa !24
  %53 = icmp slt i32 %52, 0
  br i1 %53, label %_Py_NewRef.exit46, label %54

54:                                               ; preds = %_Py_NewRef.exit45
  %55 = add nuw i32 %52, 1
  store i32 %55, ptr %51, align 8, !tbaa !24
  br label %_Py_NewRef.exit46

_Py_NewRef.exit46:                                ; preds = %_Py_NewRef.exit45, %54
  %56 = getelementptr ptr, ptr %29, i64 %.03749
  store ptr %51, ptr %56, align 8, !tbaa !23
  %57 = add i64 %.03749, 1
  %58 = call i32 @PyDict_Next(ptr noundef %3, ptr noundef nonnull %6, ptr noundef nonnull %7, ptr noundef nonnull %8) #10
  %.not = icmp eq i32 %58, 0
  br i1 %.not, label %._crit_edge53, label %40, !llvm.loop !47

._crit_edge53:                                    ; preds = %_Py_NewRef.exit46
  %59 = icmp eq i64 %45, 0
  br i1 %59, label %60, label %._crit_edge53.thread

60:                                               ; preds = %._crit_edge53
  %61 = load ptr, ptr @PyExc_TypeError, align 8, !tbaa !23
  call void @_PyErr_SetString(ptr noundef %0, ptr noundef %61, ptr noundef nonnull @.str.10) #10
  %62 = getelementptr i8, ptr %23, i64 16
  %.val.i = load i64, ptr %62, align 8, !tbaa !40
  %63 = add i64 %.val.i, %2
  %64 = icmp sgt i64 %63, 0
  br i1 %64, label %.lr.ph.i, label %._crit_edge.i

._crit_edge.i:                                    ; preds = %Py_DECREF.exit.i, %60
  call void @PyMem_Free(ptr noundef nonnull %18) #10
  %65 = load i32, ptr %23, align 8, !tbaa !24
  %.not.i.i.i = icmp sgt i32 %65, -1
  br i1 %.not.i.i.i, label %66, label %_PyStack_UnpackDict_Free.exit

66:                                               ; preds = %._crit_edge.i
  %67 = add nsw i32 %65, -1
  store i32 %67, ptr %23, align 8, !tbaa !24
  %68 = icmp eq i32 %67, 0
  br i1 %68, label %69, label %_PyStack_UnpackDict_Free.exit

69:                                               ; preds = %66
  call void @_Py_Dealloc(ptr noundef nonnull %23) #10
  br label %_PyStack_UnpackDict_Free.exit

.lr.ph.i:                                         ; preds = %60, %Py_DECREF.exit.i
  %.08.i = phi i64 [ %77, %Py_DECREF.exit.i ], [ 0, %60 ]
  %70 = getelementptr ptr, ptr %27, i64 %.08.i
  %71 = load ptr, ptr %70, align 8, !tbaa !23
  %72 = load i32, ptr %71, align 8, !tbaa !24
  %.not.i.i = icmp sgt i32 %72, -1
  br i1 %.not.i.i, label %73, label %Py_DECREF.exit.i

73:                                               ; preds = %.lr.ph.i
  %74 = add nsw i32 %72, -1
  store i32 %74, ptr %71, align 8, !tbaa !24
  %75 = icmp eq i32 %74, 0
  br i1 %75, label %76, label %Py_DECREF.exit.i

76:                                               ; preds = %73
  call void @_Py_Dealloc(ptr noundef nonnull %71) #10
  br label %Py_DECREF.exit.i

Py_DECREF.exit.i:                                 ; preds = %76, %73, %.lr.ph.i
  %77 = add nuw nsw i64 %.08.i, 1
  %exitcond.not.i = icmp eq i64 %77, %63
  br i1 %exitcond.not.i, label %._crit_edge.i, label %.lr.ph.i, !llvm.loop !41

._crit_edge53.thread:                             ; preds = %._crit_edge, %._crit_edge53
  store ptr %23, ptr %4, align 8, !tbaa !23
  br label %_PyStack_UnpackDict_Free.exit

_PyStack_UnpackDict_Free.exit:                    ; preds = %69, %66, %._crit_edge.i, %._crit_edge53.thread
  %.3 = phi ptr [ %27, %._crit_edge53.thread ], [ null, %._crit_edge.i ], [ null, %66 ], [ null, %69 ]
  call void @llvm.lifetime.end.p0(i64 8, ptr nonnull %8) #10
  call void @llvm.lifetime.end.p0(i64 8, ptr nonnull %7) #10
  call void @llvm.lifetime.end.p0(i64 8, ptr nonnull %6) #10
  br label %78

78:                                               ; preds = %20, %_PyStack_UnpackDict_Free.exit, %25, %12
  %.038 = phi ptr [ null, %12 ], [ null, %20 ], [ null, %25 ], [ %.3, %_PyStack_UnpackDict_Free.exit ]
  ret ptr %.038
}